; Function Attrs: mustprogress nofree norecurse nosync nounwind willreturn memory(write, argmem: readwrite, inaccessiblemem: none) uwtable
define hidden void @_ZN25CompilerThreadCanCallJavaD2Ev(ptr nocapture noundef nonnull readonly align 8 dereferenceable(9) %0) unnamed_addr #1 align 2 {
  %2 = load ptr, ptr %0, align 8
  %.not = icmp eq ptr %2, null
  br i1 %.not, label %8, label %3

3:                                                ; preds = %1
  %4 = getelementptr inbounds i8, ptr %0, i64 8
  %5 = load i8, ptr %4, align 8
  %6 = getelementptr inbounds i8, ptr %2, i64 1848
  %7 = and i8 %5, 1
  store i8 %7, ptr %6, align 8
  br label %8

8:                                                ; preds = %3, %1
  ret void
}